Certificate:
    Data:
        Version: 3 (0x2)
        Serial Number: 1 (0x1)
        Signature Algorithm: sha1WithRSAEncryption
        Issuer: C=PT, ST=Lisboa, L=Lisboa, O=IST-GRS, OU=GRS, CN=GRS/emailAddress=grs@tecnico.ulisboa.pt
        Validity
            Not Before: May 20 09:36:30 2015 GMT
            Not After : May 17 09:36:30 2025 GMT
        Subject: C=PT, ST=Lisboa, L=Lisboa, O=IST-GRS, OU=GRS, CN=GRS/emailAddress=grs@tecnico.ulisboa.pt
        Subject Public Key Info:
            Public Key Algorithm: rsaEncryption
            RSA Public Key: (1024 bit)
                Modulus (1024 bit):
                    00:a9:77:48:0c:a0:cc:7e:18:e5:73:e4:7a:b1:a8:
                    e9:aa:68:8c:45:8e:44:f7:69:89:7e:95:bc:ed:2e:
                    e8:e9:4e:6a:15:a7:87:a3:43:f6:34:45:67:ad:1f:
                    d6:02:b1:0a:91:6d:bd:d4:c6:c0:8e:b1:29:c2:d4:
                    dd:7a:cc:83:50:0c:05:ef:1a:5c:2d:87:87:1f:c1:
                    f2:78:ff:67:82:26:5e:e0:b1:25:ff:aa:61:21:bf:
                    d6:f1:6d:df:f3:c7:04:75:f8:8b:2f:dd:10:ca:58:
                    05:b2:cb:69:ab:f4:20:dc:fe:70:a2:92:3f:c7:61:
                    1f:b9:5d:96:fb:d7:92:8c:4d
                Exponent: 65537 (0x10001)
        X509v3 extensions:
            X509v3 Basic Constraints: 
                CA:FALSE
            Netscape Cert Type: 
                SSL Server
            Netscape Comment: 
                Easy-RSA Generated Server Certificate
            X509v3 Subject Key Identifier: 
                AE:E9:20:5C:D7:39:A2:F0:8D:59:03:82:45:9D:76:B7:02:ED:EA:29
            X509v3 Authority Key Identifier: 
                keyid:23:C7:4E:F2:04:0F:71:05:F1:A6:B1:AE:3C:B3:2A:67:49:7F:59:55
                DirName:/C=PT/ST=Lisboa/L=Lisboa/O=IST-GRS/OU=GRS/CN=GRS/emailAddress=grs@tecnico.ulisboa.pt
                serial:B7:9E:63:02:05:32:49:1D

            X509v3 Extended Key Usage: 
                TLS Web Server Authentication
            X509v3 Key Usage: 
                Digital Signature, Key Encipherment
    Signature Algorithm: sha1WithRSAEncryption
        5a:69:d6:1a:70:f5:58:6d:7c:3a:08:6e:15:06:53:0c:f1:64:
        57:e6:12:e0:70:a2:57:26:fd:db:f1:9b:34:94:06:a4:23:e3:
        e3:08:ff:61:3c:d3:2e:2b:38:66:18:4a:8a:a1:d7:b3:56:ab:
        bb:7e:bc:69:87:ef:c9:99:52:bf:78:c4:da:43:a1:e7:b7:3a:
        cf:45:39:49:09:90:a4:60:9b:b9:c0:3b:18:ed:1b:3c:25:1f:
        5e:a9:c3:85:e4:a5:24:bf:64:4f:6e:bc:8c:3f:57:20:be:28:
        af:78:7b:cf:fd:ca:7a:5f:fa:c2:11:fd:ed:bf:86:ef:15:08:
        13:ba
-----BEGIN CERTIFICATE-----
MIID1zCCA0CgAwIBAgIBATANBgkqhkiG9w0BAQUFADCBhDELMAkGA1UEBhMCUFQx
DzANBgNVBAgTBkxpc2JvYTEPMA0GA1UEBxMGTGlzYm9hMRAwDgYDVQQKEwdJU1Qt
R1JTMQwwCgYDVQQLEwNHUlMxDDAKBgNVBAMTA0dSUzElMCMGCSqGSIb3DQEJARYW
Z3JzQHRlY25pY28udWxpc2JvYS5wdDAeFw0xNTA1MjAwOTM2MzBaFw0yNTA1MTcw
OTM2MzBaMIGEMQswCQYDVQQGEwJQVDEPMA0GA1UECBMGTGlzYm9hMQ8wDQYDVQQH
EwZMaXNib2ExEDAOBgNVBAoTB0lTVC1HUlMxDDAKBgNVBAsTA0dSUzEMMAoGA1UE
AxMDR1JTMSUwIwYJKoZIhvcNAQkBFhZncnNAdGVjbmljby51bGlzYm9hLnB0MIGf
MA0GCSqGSIb3DQEBAQUAA4GNADCBiQKBgQCpd0gMoMx+GOVz5HqxqOmqaIxFjkT3
aYl+lbztLujpTmoVp4ejQ/Y0RWetH9YCsQqRbb3UxsCOsSnC1N16zINQDAXvGlwt
h4cfwfJ4/2eCJl7gsSX/qmEhv9bxbd/zxwR1+Isv3RDKWAWyy2mr9CDc/nCikj/H
YR+5XZb715KMTQIDAQABo4IBVTCCAVEwCQYDVR0TBAIwADARBglghkgBhvhCAQEE
BAMCBkAwNAYJYIZIAYb4QgENBCcWJUVhc3ktUlNBIEdlbmVyYXRlZCBTZXJ2ZXIg
Q2VydGlmaWNhdGUwHQYDVR0OBBYEFK7pIFzXOaLwjVkDgkWddrcC7eopMIG5BgNV
HSMEgbEwga6AFCPHTvIED3EF8aaxrjyzKmdJf1lVoYGKpIGHMIGEMQswCQYDVQQG
EwJQVDEPMA0GA1UECBMGTGlzYm9hMQ8wDQYDVQQHEwZMaXNib2ExEDAOBgNVBAoT
B0lTVC1HUlMxDDAKBgNVBAsTA0dSUzEMMAoGA1UEAxMDR1JTMSUwIwYJKoZIhvcN
AQkBFhZncnNAdGVjbmljby51bGlzYm9hLnB0ggkAt55jAgUySR0wEwYDVR0lBAww
CgYIKwYBBQUHAwEwCwYDVR0PBAQDAgWgMA0GCSqGSIb3DQEBBQUAA4GBAFpp1hpw
9VhtfDoIbhUGUwzxZFfmEuBwolcm/dvxmzSUBqQj4+MI/2E80y4rOGYYSoqh17NW
q7t+vGmH78mZUr94xNpDoee3Os9FOUkJkKRgm7nAOxjtGzwlH16pw4XkpSS/ZE9u
vIw/VyC+KK94e8/9ynpf+sIR/e2/hu8VCBO6
-----END CERTIFICATE-----
