Certificate:
    Data:
        Version: 3 (0x2)
        Serial Number: 2 (0x2)
        Signature Algorithm: sha1WithRSAEncryption
        Issuer: C=PT, ST=Lisboa, L=Lisboa, O=IST, OU=GRS, CN=GRS/emailAddress=grs@tecnico.ulisboa.pt
        Validity
            Not Before: May 21 16:54:19 2015 GMT
            Not After : May 18 16:54:19 2025 GMT
        Subject: C=PT, ST=Lisboa, L=Lisboa, O=IST, OU=GRS, CN=GRS/emailAddress=grs@tecnico.ulisboa.pt
        Subject Public Key Info:
            Public Key Algorithm: rsaEncryption
            RSA Public Key: (1024 bit)
                Modulus (1024 bit):
                    00:e1:2a:5f:6f:b2:f2:27:27:91:4f:ef:59:8d:c8:
                    88:8a:ba:d1:14:bc:f4:95:fe:47:fe:77:a6:6b:97:
                    5b:93:cb:6d:94:3d:cf:bc:59:df:32:b9:e2:3d:85:
                    23:b0:22:e2:8f:13:b9:fa:64:98:33:e0:5c:21:c6:
                    96:44:97:1b:e2:57:66:dc:e8:bf:ca:6a:88:4f:ea:
                    48:58:09:eb:7f:5a:3d:79:c9:e0:55:9a:d5:f6:24:
                    33:68:9f:72:4a:ec:8b:ff:ff:43:83:a0:79:d1:31:
                    46:d2:2b:dd:95:3c:06:d0:0a:79:d0:a3:2f:32:20:
                    a4:c7:87:d1:97:2c:dc:23:27
                Exponent: 65537 (0x10001)
        X509v3 extensions:
            X509v3 Basic Constraints: 
                CA:FALSE
            Netscape Comment: 
                Easy-RSA Generated Certificate
            X509v3 Subject Key Identifier: 
                CD:60:A0:87:3E:50:69:8B:26:CB:4A:77:E0:65:D3:83:DA:24:58:BA
            X509v3 Authority Key Identifier: 
                keyid:43:0E:99:9A:2A:37:88:C7:E9:DD:8F:80:D5:40:65:CC:EB:31:5F:F7
                DirName:/C=PT/ST=Lisboa/L=Lisboa/O=IST/OU=GRS/CN=GRS/emailAddress=grs@tecnico.ulisboa.pt
                serial:E4:9A:6F:CD:E0:D2:D2:32

            X509v3 Extended Key Usage: 
                TLS Web Client Authentication
            X509v3 Key Usage: 
                Digital Signature
    Signature Algorithm: sha1WithRSAEncryption
        0e:b4:46:b0:43:a1:d3:38:47:14:68:4f:f8:8e:82:8d:bd:da:
        04:43:9d:04:88:ba:c6:1a:de:d8:28:aa:67:ea:e8:99:d5:2c:
        78:75:08:82:a0:d7:25:30:da:21:87:32:cf:97:7e:4a:44:8a:
        da:be:ad:ce:f7:d7:eb:c8:6c:68:e3:08:5e:81:41:99:71:06:
        8c:14:72:26:e2:32:c9:71:25:8c:6b:b0:a4:cc:db:d9:83:96:
        36:ee:22:88:3a:f1:1e:03:3e:cb:24:7b:45:97:06:b1:bb:b0:
        27:b6:c4:60:3d:1b:94:03:4e:ad:c9:de:06:44:1b:8a:53:5b:
        9a:56
-----BEGIN CERTIFICATE-----
MIIDsTCCAxqgAwIBAgIBAjANBgkqhkiG9w0BAQUFADCBgDELMAkGA1UEBhMCUFQx
DzANBgNVBAgTBkxpc2JvYTEPMA0GA1UEBxMGTGlzYm9hMQwwCgYDVQQKEwNJU1Qx
DDAKBgNVBAsTA0dSUzEMMAoGA1UEAxMDR1JTMSUwIwYJKoZIhvcNAQkBFhZncnNA
dGVjbmljby51bGlzYm9hLnB0MB4XDTE1MDUyMTE2NTQxOVoXDTI1MDUxODE2NTQx
OVowgYAxCzAJBgNVBAYTAlBUMQ8wDQYDVQQIEwZMaXNib2ExDzANBgNVBAcTBkxp
c2JvYTEMMAoGA1UEChMDSVNUMQwwCgYDVQQLEwNHUlMxDDAKBgNVBAMTA0dSUzEl
MCMGCSqGSIb3DQEJARYWZ3JzQHRlY25pY28udWxpc2JvYS5wdDCBnzANBgkqhkiG
9w0BAQEFAAOBjQAwgYkCgYEA4Spfb7LyJyeRT+9ZjciIirrRFLz0lf5H/nema5db
k8ttlD3PvFnfMrniPYUjsCLijxO5+mSYM+BcIcaWRJcb4ldm3Oi/ymqIT+pIWAnr
f1o9ecngVZrV9iQzaJ9ySuyL//9Dg6B50TFG0ivdlTwG0Ap50KMvMiCkx4fRlyzc
IycCAwEAAaOCATcwggEzMAkGA1UdEwQCMAAwLQYJYIZIAYb4QgENBCAWHkVhc3kt
UlNBIEdlbmVyYXRlZCBDZXJ0aWZpY2F0ZTAdBgNVHQ4EFgQUzWCghz5QaYsmy0p3
4GXTg9okWLowgbUGA1UdIwSBrTCBqoAUQw6Zmio3iMfp3Y+A1UBlzOsxX/ehgYak
gYMwgYAxCzAJBgNVBAYTAlBUMQ8wDQYDVQQIEwZMaXNib2ExDzANBgNVBAcTBkxp
c2JvYTEMMAoGA1UEChMDSVNUMQwwCgYDVQQLEwNHUlMxDDAKBgNVBAMTA0dSUzEl
MCMGCSqGSIb3DQEJARYWZ3JzQHRlY25pY28udWxpc2JvYS5wdIIJAOSab83g0tIy
MBMGA1UdJQQMMAoGCCsGAQUFBwMCMAsGA1UdDwQEAwIHgDANBgkqhkiG9w0BAQUF
AAOBgQAOtEawQ6HTOEcUaE/4joKNvdoEQ50EiLrGGt7YKKpn6uiZ1Sx4dQiCoNcl
MNohhzLPl35KRIravq3O99fryGxo4whegUGZcQaMFHIm4jLJcSWMa7CkzNvZg5Y2
7iKIOvEeAz7LJHtFlwaxu7AntsRgPRuUA06tyd4GRBuKU1uaVg==
-----END CERTIFICATE-----
